; Function Attrs: nounwind uwtable
define ptr @l_List_foldl___at_Lean_RBMap_fromList___spec__1___rarg(ptr noundef %0, ptr noundef %1, ptr noundef %2) #1 {
  %4 = ptrtoint ptr %0 to i64
  %5 = and i64 %4, 1
  %.not52 = icmp eq i64 %5, 0
  br label %l_Lean_RBNode_insert___rarg.exit

l_Lean_RBNode_insert___rarg.exit:                 ; preds = %l_Lean_RBNode_insert___rarg.exit.backedge, %3
  %.020 = phi ptr [ %2, %3 ], [ %35, %l_Lean_RBNode_insert___rarg.exit.backedge ]
  %.0 = phi ptr [ %1, %3 ], [ %.0.be, %l_Lean_RBNode_insert___rarg.exit.backedge ]
  %6 = ptrtoint ptr %.020 to i64
  %7 = and i64 %6, 1
  %.not.i31 = icmp eq i64 %7, 0
  br i1 %.not.i31, label %11, label %8

8:                                                ; preds = %l_Lean_RBNode_insert___rarg.exit
  %9 = lshr i64 %6, 1
  %10 = trunc i64 %9 to i32
  br label %lean_obj_tag.exit

11:                                               ; preds = %l_Lean_RBNode_insert___rarg.exit
  %12 = getelementptr i8, ptr %.020, i64 4
  %.val.i = load i32, ptr %12, align 4
  %13 = lshr i32 %.val.i, 24
  br label %lean_obj_tag.exit

lean_obj_tag.exit:                                ; preds = %8, %11
  %.0.i = phi i32 [ %10, %8 ], [ %13, %11 ]
  %14 = icmp eq i32 %.0.i, 0
  br i1 %14, label %15, label %23

15:                                               ; preds = %lean_obj_tag.exit
  br i1 %.not52, label %16, label %lean_dec.exit22

16:                                               ; preds = %15
  %17 = load i32, ptr %0, align 4, !tbaa !4
  %18 = icmp sgt i32 %17, 1
  br i1 %18, label %19, label %21, !prof !9

19:                                               ; preds = %16
  %20 = add nsw i32 %17, -1
  store i32 %20, ptr %0, align 4, !tbaa !4
  br label %lean_dec.exit22

21:                                               ; preds = %16
  %.not.i = icmp eq i32 %17, 0
  br i1 %.not.i, label %lean_dec.exit22, label %22

22:                                               ; preds = %21
  tail call void @lean_dec_ref_cold(ptr noundef nonnull %0) #9
  br label %lean_dec.exit22

lean_dec.exit22:                                  ; preds = %22, %21, %19, %15
  ret ptr %.0

23:                                               ; preds = %lean_obj_tag.exit
  %24 = getelementptr inbounds nuw i8, ptr %.020, i64 8
  %25 = load ptr, ptr %24, align 8, !tbaa !10
  %26 = ptrtoint ptr %25 to i64
  %27 = and i64 %26, 1
  %.not = icmp eq i64 %27, 0
  br i1 %.not, label %28, label %lean_inc.exit26

28:                                               ; preds = %23
  %.val.i32 = load i32, ptr %25, align 4, !tbaa !4
  %29 = icmp sgt i32 %.val.i32, 0
  br i1 %29, label %30, label %32, !prof !9

30:                                               ; preds = %28
  %31 = add nuw i32 %.val.i32, 1
  store i32 %31, ptr %25, align 4, !tbaa !4
  br label %lean_inc.exit26

32:                                               ; preds = %28
  %.not.i33 = icmp eq i32 %.val.i32, 0
  br i1 %.not.i33, label %lean_inc.exit26, label %33

33:                                               ; preds = %32
  tail call void @lean_inc_ref_cold(ptr noundef nonnull %25) #9
  br label %lean_inc.exit26

lean_inc.exit26:                                  ; preds = %33, %32, %30, %23
  %34 = getelementptr inbounds nuw i8, ptr %.020, i64 16
  %35 = load ptr, ptr %34, align 8, !tbaa !10
  %36 = ptrtoint ptr %35 to i64
  %37 = and i64 %36, 1
  %.not48 = icmp eq i64 %37, 0
  br i1 %.not48, label %38, label %lean_inc.exit25

38:                                               ; preds = %lean_inc.exit26
  %.val.i34 = load i32, ptr %35, align 4, !tbaa !4
  %39 = icmp sgt i32 %.val.i34, 0
  br i1 %39, label %40, label %42, !prof !9

40:                                               ; preds = %38
  %41 = add nuw i32 %.val.i34, 1
  store i32 %41, ptr %35, align 4, !tbaa !4
  br label %lean_inc.exit25

42:                                               ; preds = %38
  %.not.i35 = icmp eq i32 %.val.i34, 0
  br i1 %.not.i35, label %lean_inc.exit25, label %43

43:                                               ; preds = %42
  tail call void @lean_inc_ref_cold(ptr noundef nonnull %35) #9
  br label %lean_inc.exit25

lean_inc.exit25:                                  ; preds = %43, %42, %40, %lean_inc.exit26
  br i1 %.not.i31, label %44, label %lean_dec.exit21

44:                                               ; preds = %lean_inc.exit25
  %45 = load i32, ptr %.020, align 4, !tbaa !4
  %46 = icmp sgt i32 %45, 1
  br i1 %46, label %47, label %49, !prof !9

47:                                               ; preds = %44
  %48 = add nsw i32 %45, -1
  store i32 %48, ptr %.020, align 4, !tbaa !4
  br label %lean_dec.exit21

49:                                               ; preds = %44
  %.not.i27 = icmp eq i32 %45, 0
  br i1 %.not.i27, label %lean_dec.exit21, label %50

50:                                               ; preds = %49
  tail call void @lean_dec_ref_cold(ptr noundef nonnull %.020) #9
  br label %lean_dec.exit21

lean_dec.exit21:                                  ; preds = %50, %49, %47, %lean_inc.exit25
  %51 = getelementptr inbounds nuw i8, ptr %25, i64 8
  %52 = load ptr, ptr %51, align 8, !tbaa !10
  %53 = ptrtoint ptr %52 to i64
  %54 = and i64 %53, 1
  %.not50 = icmp eq i64 %54, 0
  br i1 %.not50, label %55, label %lean_inc.exit24

55:                                               ; preds = %lean_dec.exit21
  %.val.i37 = load i32, ptr %52, align 4, !tbaa !4
  %56 = icmp sgt i32 %.val.i37, 0
  br i1 %56, label %57, label %59, !prof !9

57:                                               ; preds = %55
  %58 = add nuw i32 %.val.i37, 1
  store i32 %58, ptr %52, align 4, !tbaa !4
  br label %lean_inc.exit24

59:                                               ; preds = %55
  %.not.i38 = icmp eq i32 %.val.i37, 0
  br i1 %.not.i38, label %lean_inc.exit24, label %60

60:                                               ; preds = %59
  tail call void @lean_inc_ref_cold(ptr noundef nonnull %52) #9
  br label %lean_inc.exit24

lean_inc.exit24:                                  ; preds = %60, %59, %57, %lean_dec.exit21
  %61 = getelementptr inbounds nuw i8, ptr %25, i64 16
  %62 = load ptr, ptr %61, align 8, !tbaa !10
  %63 = ptrtoint ptr %62 to i64
  %64 = and i64 %63, 1
  %.not51 = icmp eq i64 %64, 0
  br i1 %.not51, label %65, label %lean_inc.exit23

65:                                               ; preds = %lean_inc.exit24
  %.val.i40 = load i32, ptr %62, align 4, !tbaa !4
  %66 = icmp sgt i32 %.val.i40, 0
  br i1 %66, label %67, label %69, !prof !9

67:                                               ; preds = %65
  %68 = add nuw i32 %.val.i40, 1
  store i32 %68, ptr %62, align 4, !tbaa !4
  br label %lean_inc.exit23

69:                                               ; preds = %65
  %.not.i41 = icmp eq i32 %.val.i40, 0
  br i1 %.not.i41, label %lean_inc.exit23, label %70

70:                                               ; preds = %69
  tail call void @lean_inc_ref_cold(ptr noundef nonnull %62) #9
  br label %lean_inc.exit23

lean_inc.exit23:                                  ; preds = %70, %69, %67, %lean_inc.exit24
  br i1 %.not, label %71, label %lean_dec.exit

71:                                               ; preds = %lean_inc.exit23
  %72 = load i32, ptr %25, align 4, !tbaa !4
  %73 = icmp sgt i32 %72, 1
  br i1 %73, label %74, label %76, !prof !9

74:                                               ; preds = %71
  %75 = add nsw i32 %72, -1
  store i32 %75, ptr %25, align 4, !tbaa !4
  br label %lean_dec.exit

76:                                               ; preds = %71
  %.not.i29 = icmp eq i32 %72, 0
  br i1 %.not.i29, label %lean_dec.exit, label %77

77:                                               ; preds = %76
  tail call void @lean_dec_ref_cold(ptr noundef nonnull %25) #9
  br label %lean_dec.exit

lean_dec.exit:                                    ; preds = %77, %76, %74, %lean_inc.exit23
  br i1 %.not52, label %78, label %lean_inc.exit

78:                                               ; preds = %lean_dec.exit
  %.val.i43 = load i32, ptr %0, align 4, !tbaa !4
  %79 = icmp sgt i32 %.val.i43, 0
  br i1 %79, label %80, label %82, !prof !9

80:                                               ; preds = %78
  %81 = add nuw i32 %.val.i43, 1
  store i32 %81, ptr %0, align 4, !tbaa !4
  br label %lean_inc.exit

82:                                               ; preds = %78
  %.not.i44 = icmp eq i32 %.val.i43, 0
  br i1 %.not.i44, label %lean_inc.exit, label %83

83:                                               ; preds = %82
  tail call void @lean_inc_ref_cold(ptr noundef nonnull %0) #9
  br label %lean_inc.exit

lean_inc.exit:                                    ; preds = %83, %82, %80, %lean_dec.exit
  %84 = ptrtoint ptr %.0 to i64
  %85 = and i64 %84, 1
  %.not.i.i.i = icmp eq i64 %85, 0
  br i1 %.not.i.i.i, label %89, label %86

86:                                               ; preds = %lean_inc.exit
  %87 = lshr i64 %84, 1
  %88 = trunc i64 %87 to i32
  br label %lean_obj_tag.exit.i.i

89:                                               ; preds = %lean_inc.exit
  %90 = getelementptr i8, ptr %.0, i64 4
  %.val.i.i.i = load i32, ptr %90, align 4
  %91 = lshr i32 %.val.i.i.i, 24
  br label %lean_obj_tag.exit.i.i

lean_obj_tag.exit.i.i:                            ; preds = %89, %86
  %.0.i.i.i = phi i32 [ %88, %86 ], [ %91, %89 ]
  %92 = icmp eq i32 %.0.i.i.i, 0
  br i1 %92, label %l_Lean_RBNode_isRed___rarg.exit.thread.i, label %l_Lean_RBNode_isRed___rarg.exit.i

l_Lean_RBNode_isRed___rarg.exit.i:                ; preds = %lean_obj_tag.exit.i.i
  %93 = getelementptr i8, ptr %.0, i64 40
  %.val.i.i = load i8, ptr %93, align 1, !tbaa !18
  %.not.i46 = icmp eq i8 %.val.i.i, 0
  br i1 %.not.i46, label %95, label %l_Lean_RBNode_isRed___rarg.exit.thread.i

l_Lean_RBNode_isRed___rarg.exit.thread.i:         ; preds = %l_Lean_RBNode_isRed___rarg.exit.i, %lean_obj_tag.exit.i.i
  %94 = tail call ptr @l_Lean_RBNode_ins___rarg(ptr noundef %0, ptr noundef %.0, ptr noundef %52, ptr noundef %62)
  br label %l_Lean_RBNode_insert___rarg.exit.backedge

l_Lean_RBNode_insert___rarg.exit.backedge:        ; preds = %l_Lean_RBNode_isRed___rarg.exit.thread.i, %95
  %.0.be = phi ptr [ %94, %l_Lean_RBNode_isRed___rarg.exit.thread.i ], [ %97, %95 ]
  br label %l_Lean_RBNode_insert___rarg.exit

95:                                               ; preds = %l_Lean_RBNode_isRed___rarg.exit.i
  %96 = tail call ptr @l_Lean_RBNode_ins___rarg(ptr noundef %0, ptr noundef nonnull %.0, ptr noundef %52, ptr noundef %62)
  %97 = tail call ptr @l_Lean_RBNode_setBlack___rarg(ptr noundef %96)
  br label %l_Lean_RBNode_insert___rarg.exit.backedge
}